ARM GAS  C:\Users\JEROME~1.CRO\AppData\Local\Temp\ccNYogPO.s 			page 1


   1              		.syntax unified
   2              		.cpu cortex-m0
   3              		.fpu softvfp
   4              		.eabi_attribute 20, 1
   5              		.eabi_attribute 21, 1
   6              		.eabi_attribute 23, 3
   7              		.eabi_attribute 24, 1
   8              		.eabi_attribute 25, 1
   9              		.eabi_attribute 26, 1
  10              		.eabi_attribute 30, 1
  11              		.eabi_attribute 34, 0
  12              		.eabi_attribute 18, 4
  13              		.thumb
  14              		.syntax unified
  15              		.file	"main.c"
  16              		.text
  17              	.Ltext0:
  18              		.cfi_sections	.debug_frame
  19              		.section	.text.updateAnalogIn,"ax",%progbits
  20              		.align	2
  21              		.global	updateAnalogIn
  22              		.code	16
  23              		.thumb_func
  24              		.type	updateAnalogIn, %function
  25              	updateAnalogIn:
  26              	.LFB35:
  27              		.file 1 "main.c"
   1:main.c        **** #include <project.h>
   2:main.c        **** 
   3:main.c        **** uint16 fingerPos    = 0xFFFF;
   4:main.c        **** uint16 fingerPosOld = 0xFFFF;
   5:main.c        **** 
   6:main.c        **** 
   7:main.c        **** uint8 nSamples             = 20;
   8:main.c        **** uint8 analogIn[20]         ={0};
   9:main.c        **** uint8 analogInOld[20]      ={0};
  10:main.c        **** uint16 a;
  11:main.c        **** int capsenseNotify;
  12:main.c        **** 
  13:main.c        **** /*******************************************************************************
  14:main.c        **** * Macros & Declarations for MTU Exchange
  15:main.c        **** *******************************************************************************/
  16:main.c        **** #define MAX_MTU_SIZE                (512)
  17:main.c        **** #define DEFAULT_MTU_SIZE            (23)
  18:main.c        **** 
  19:main.c        **** uint8 cccdNotifEnabledValue[] = {0x01, 0x00};
  20:main.c        **** 
  21:main.c        **** CYBLE_GATT_VALUE_T cccdNotifFlagSetStruct =
  22:main.c        **** {
  23:main.c        ****     cccdNotifEnabledValue,
  24:main.c        ****     2,
  25:main.c        ****     0
  26:main.c        **** };
  27:main.c        **** 
  28:main.c        **** 
  29:main.c        **** 
  30:main.c        **** 
ARM GAS  C:\Users\JEROME~1.CRO\AppData\Local\Temp\ccNYogPO.s 			page 2


  31:main.c        **** 
  32:main.c        **** 
  33:main.c        **** /***************************************************************
  34:main.c        ****  * Function to update the LED state in the GATT database
  35:main.c        ****  **************************************************************/
  36:main.c        **** //uint16 analogIn    =  0xFFFF;
  37:main.c        **** //uint16 analogInOld  = 0xFFFF;
  38:main.c        **** //void updateAnalogIn()
  39:main.c        **** //{
  40:main.c        **** //    
  41:main.c        **** //    if(CyBle_GetState() != CYBLE_STATE_CONNECTED)
  42:main.c        **** //        return;
  43:main.c        **** //    
  44:main.c        **** //    CYBLE_GATTS_HANDLE_VALUE_NTF_T 	tempHandle;
  45:main.c        **** //   
  46:main.c        **** //    tempHandle.attrHandle = CYBLE_LEDCAPSENSE_ANALOGIN_CHAR_HANDLE;
  47:main.c        **** //  	tempHandle.value.val = (uint8 *) &analogIn;
  48:main.c        **** //    tempHandle.value.len = 2; 
  49:main.c        **** //    CyBle_GattsWriteAttributeValue(&tempHandle,0,&cyBle_connHandle,CYBLE_GATT_DB_LOCALLY_INITIATE
  50:main.c        **** //    
  51:main.c        **** //    /* send notification to client if notifications are enabled and finger location has changed *
  52:main.c        **** //    if (capsenseNotify  && (analogIn != analogInOld) )//TODO:  Always Updating
  53:main.c        **** //    
  54:main.c        **** //        CyBle_GattsNotification(cyBle_connHandle,&tempHandle);
  55:main.c        **** //        analogInOld = analogIn;
  56:main.c        **** //    
  57:main.c        **** //}
  58:main.c        **** 
  59:main.c        **** 
  60:main.c        **** void updateAnalogIn()
  61:main.c        **** {
  28              		.loc 1 61 0
  29              		.cfi_startproc
  30              		@ args = 0, pretend = 0, frame = 16
  31              		@ frame_needed = 0, uses_anonymous_args = 0
  32 0000 00B5     		push	{lr}
  33              		.cfi_def_cfa_offset 4
  34              		.cfi_offset 14, -4
  35 0002 85B0     		sub	sp, sp, #20
  36              		.cfi_def_cfa_offset 24
  62:main.c        ****  
  63:main.c        ****     if(CyBle_GetState() != CYBLE_STATE_CONNECTED)
  37              		.loc 1 63 0
  38 0004 0F4B     		ldr	r3, .L5
  39 0006 1B78     		ldrb	r3, [r3]
  40 0008 022B     		cmp	r3, #2
  41 000a 18D1     		bne	.L1
  64:main.c        ****         return;
  65:main.c        ****     
  66:main.c        ****     CYBLE_GATTS_HANDLE_VALUE_NTF_T 	tempHandle;
  67:main.c        ****    
  68:main.c        ****     tempHandle.attrHandle = CYBLE_LEDCAPSENSE_ANALOGIN_CHAR_HANDLE;
  42              		.loc 1 68 0
  43 000c 01A8     		add	r0, sp, #4
  44 000e 1333     		adds	r3, r3, #19
  45 0010 0381     		strh	r3, [r0, #8]
  69:main.c        ****   	tempHandle.value.val = (uint8 *) &analogIn;
ARM GAS  C:\Users\JEROME~1.CRO\AppData\Local\Temp\ccNYogPO.s 			page 3


  46              		.loc 1 69 0
  47 0012 0D4B     		ldr	r3, .L5+4
  48 0014 0193     		str	r3, [sp, #4]
  70:main.c        ****     tempHandle.value.len = nSamples;  //TODO:  CHANGED TO 23
  49              		.loc 1 70 0
  50 0016 0D4B     		ldr	r3, .L5+8
  51 0018 1B78     		ldrb	r3, [r3]
  52 001a 8380     		strh	r3, [r0, #4]
  71:main.c        ****     CyBle_GattsWriteAttributeValue(&tempHandle,0,&cyBle_connHandle,CYBLE_GATT_DB_LOCALLY_INITIATED)
  53              		.loc 1 71 0
  54 001c 0023     		movs	r3, #0
  55 001e 0C4A     		ldr	r2, .L5+12
  56 0020 0021     		movs	r1, #0
  57 0022 FFF7FEFF 		bl	CyBle_GattsWriteAttributeValue
  58              	.LVL0:
  72:main.c        ****     
  73:main.c        ****     /* send notification to client if notifications are enabled and finger location has changed */
  74:main.c        ****     if (capsenseNotify)//&& (analogIn[0] != analogInOld[0]) )//TODO:  Always Updating
  59              		.loc 1 74 0
  60 0026 0B4B     		ldr	r3, .L5+16
  61 0028 1B68     		ldr	r3, [r3]
  62 002a 002B     		cmp	r3, #0
  63 002c 07D0     		beq	.L1
  75:main.c        ****         CyBle_GattsNotification(cyBle_connHandle,&tempHandle);
  64              		.loc 1 75 0
  65 002e 084A     		ldr	r2, .L5+12
  66 0030 1378     		ldrb	r3, [r2]
  67 0032 5078     		ldrb	r0, [r2, #1]
  68 0034 0002     		lsls	r0, r0, #8
  69 0036 1843     		orrs	r0, r3
  70 0038 01A9     		add	r1, sp, #4
  71 003a FFF7FEFF 		bl	CyBle_GattsNotification
  72              	.LVL1:
  73              	.L1:
  76:main.c        **** 
  77:main.c        ****     
  78:main.c        **** }
  74              		.loc 1 78 0
  75 003e 05B0     		add	sp, sp, #20
  76              		@ sp needed
  77 0040 00BD     		pop	{pc}
  78              	.L6:
  79 0042 C046     		.align	2
  80              	.L5:
  81 0044 00000000 		.word	cyBle_state
  82 0048 00000000 		.word	.LANCHOR0
  83 004c 00000000 		.word	.LANCHOR1
  84 0050 00000000 		.word	cyBle_connHandle
  85 0054 00000000 		.word	capsenseNotify
  86              		.cfi_endproc
  87              	.LFE35:
  88              		.size	updateAnalogIn, .-updateAnalogIn
  89              		.section	.text.updateLed,"ax",%progbits
  90              		.align	2
  91              		.global	updateLed
  92              		.code	16
  93              		.thumb_func
ARM GAS  C:\Users\JEROME~1.CRO\AppData\Local\Temp\ccNYogPO.s 			page 4


  94              		.type	updateLed, %function
  95              	updateLed:
  96              	.LFB36:
  79:main.c        **** 
  80:main.c        **** 
  81:main.c        **** /***************************************************************
  82:main.c        ****  * Function to update the LED state in the GATT database
  83:main.c        ****  **************************************************************/
  84:main.c        **** void updateLed()
  85:main.c        **** {
  97              		.loc 1 85 0
  98              		.cfi_startproc
  99              		@ args = 0, pretend = 0, frame = 16
 100              		@ frame_needed = 0, uses_anonymous_args = 0
 101 0000 00B5     		push	{lr}
 102              		.cfi_def_cfa_offset 4
 103              		.cfi_offset 14, -4
 104 0002 85B0     		sub	sp, sp, #20
 105              		.cfi_def_cfa_offset 24
  86:main.c        ****     CYBLE_GATTS_HANDLE_VALUE_NTF_T 	tempHandle;
  87:main.c        ****    
  88:main.c        ****     uint8 red_State = !red_Read();
 106              		.loc 1 88 0
 107 0004 FFF7FEFF 		bl	red_Read
 108              	.LVL2:
 109 0008 4342     		rsbs	r3, r0, #0
 110 000a 4341     		adcs	r3, r3, r0
 111 000c 6A46     		mov	r2, sp
 112 000e D370     		strb	r3, [r2, #3]
 113 0010 0332     		adds	r2, r2, #3
  89:main.c        ****     
  90:main.c        ****     if(CyBle_GetState() != CYBLE_STATE_CONNECTED)
 114              		.loc 1 90 0
 115 0012 084B     		ldr	r3, .L10
 116 0014 1B78     		ldrb	r3, [r3]
 117 0016 022B     		cmp	r3, #2
 118 0018 0AD1     		bne	.L7
  91:main.c        ****         return;
  92:main.c        ****     
  93:main.c        ****     tempHandle.attrHandle = CYBLE_LEDCAPSENSE_LED_CHAR_HANDLE;
 119              		.loc 1 93 0
 120 001a 01A8     		add	r0, sp, #4
 121 001c 0C33     		adds	r3, r3, #12
 122 001e 0381     		strh	r3, [r0, #8]
  94:main.c        ****   	tempHandle.value.val = (uint8 *) &red_State;
 123              		.loc 1 94 0
 124 0020 0192     		str	r2, [sp, #4]
  95:main.c        ****     tempHandle.value.len = 1;
 125              		.loc 1 95 0
 126 0022 0123     		movs	r3, #1
 127 0024 8380     		strh	r3, [r0, #4]
  96:main.c        ****     CyBle_GattsWriteAttributeValue(&tempHandle,0,&cyBle_connHandle,CYBLE_GATT_DB_LOCALLY_INITIATED)
 128              		.loc 1 96 0
 129 0026 0023     		movs	r3, #0
 130 0028 034A     		ldr	r2, .L10+4
 131 002a 0021     		movs	r1, #0
 132 002c FFF7FEFF 		bl	CyBle_GattsWriteAttributeValue
ARM GAS  C:\Users\JEROME~1.CRO\AppData\Local\Temp\ccNYogPO.s 			page 5


 133              	.LVL3:
 134              	.L7:
  97:main.c        **** }
 135              		.loc 1 97 0
 136 0030 05B0     		add	sp, sp, #20
 137              		@ sp needed
 138 0032 00BD     		pop	{pc}
 139              	.L11:
 140              		.align	2
 141              	.L10:
 142 0034 00000000 		.word	cyBle_state
 143 0038 00000000 		.word	cyBle_connHandle
 144              		.cfi_endproc
 145              	.LFE36:
 146              		.size	updateLed, .-updateLed
 147              		.section	.text.updateCapsense,"ax",%progbits
 148              		.align	2
 149              		.global	updateCapsense
 150              		.code	16
 151              		.thumb_func
 152              		.type	updateCapsense, %function
 153              	updateCapsense:
 154              	.LFB37:
  98:main.c        **** 
  99:main.c        **** /***************************************************************
 100:main.c        ****  * Function to update the CapSesnse state in the GATT database
 101:main.c        ****  **************************************************************/
 102:main.c        **** void updateCapsense()
 103:main.c        **** {
 155              		.loc 1 103 0
 156              		.cfi_startproc
 157              		@ args = 0, pretend = 0, frame = 16
 158              		@ frame_needed = 0, uses_anonymous_args = 0
 159 0000 00B5     		push	{lr}
 160              		.cfi_def_cfa_offset 4
 161              		.cfi_offset 14, -4
 162 0002 85B0     		sub	sp, sp, #20
 163              		.cfi_def_cfa_offset 24
 104:main.c        ****     if(CyBle_GetState() != CYBLE_STATE_CONNECTED)
 164              		.loc 1 104 0
 165 0004 134B     		ldr	r3, .L16
 166 0006 1B78     		ldrb	r3, [r3]
 167 0008 022B     		cmp	r3, #2
 168 000a 20D1     		bne	.L12
 105:main.c        ****         return;
 106:main.c        ****     
 107:main.c        **** 	CYBLE_GATTS_HANDLE_VALUE_NTF_T 	tempHandle;
 108:main.c        ****     
 109:main.c        ****     tempHandle.attrHandle = CYBLE_LEDCAPSENSE_CAPSENSE_CHAR_HANDLE;
 169              		.loc 1 109 0
 170 000c 01A8     		add	r0, sp, #4
 171 000e 0F33     		adds	r3, r3, #15
 172 0010 0381     		strh	r3, [r0, #8]
 110:main.c        ****   	tempHandle.value.val = (uint8 *)&fingerPos;
 173              		.loc 1 110 0
 174 0012 114B     		ldr	r3, .L16+4
 175 0014 0233     		adds	r3, r3, #2
ARM GAS  C:\Users\JEROME~1.CRO\AppData\Local\Temp\ccNYogPO.s 			page 6


 176 0016 0193     		str	r3, [sp, #4]
 111:main.c        ****     tempHandle.value.len = 2; 
 177              		.loc 1 111 0
 178 0018 0223     		movs	r3, #2
 179 001a 8380     		strh	r3, [r0, #4]
 112:main.c        ****     CyBle_GattsWriteAttributeValue(&tempHandle,0,&cyBle_connHandle,CYBLE_GATT_DB_LOCALLY_INITIATED 
 180              		.loc 1 112 0
 181 001c 0023     		movs	r3, #0
 182 001e 0F4A     		ldr	r2, .L16+8
 183 0020 0021     		movs	r1, #0
 184 0022 FFF7FEFF 		bl	CyBle_GattsWriteAttributeValue
 185              	.LVL4:
 113:main.c        ****     
 114:main.c        ****     /* send notification to client if notifications are enabled and finger location has changed */
 115:main.c        ****     if (capsenseNotify && (fingerPos != fingerPosOld) )
 186              		.loc 1 115 0
 187 0026 0E4B     		ldr	r3, .L16+12
 188 0028 1B68     		ldr	r3, [r3]
 189 002a 002B     		cmp	r3, #0
 190 002c 0CD0     		beq	.L14
 191              		.loc 1 115 0 is_stmt 0 discriminator 1
 192 002e 0A4B     		ldr	r3, .L16+4
 193 0030 5A88     		ldrh	r2, [r3, #2]
 194 0032 9B88     		ldrh	r3, [r3, #4]
 195 0034 9A42     		cmp	r2, r3
 196 0036 07D0     		beq	.L14
 116:main.c        ****         CyBle_GattsNotification(cyBle_connHandle,&tempHandle);
 197              		.loc 1 116 0 is_stmt 1
 198 0038 084A     		ldr	r2, .L16+8
 199 003a 1378     		ldrb	r3, [r2]
 200 003c 5078     		ldrb	r0, [r2, #1]
 201 003e 0002     		lsls	r0, r0, #8
 202 0040 1843     		orrs	r0, r3
 203 0042 01A9     		add	r1, sp, #4
 204 0044 FFF7FEFF 		bl	CyBle_GattsNotification
 205              	.LVL5:
 206              	.L14:
 117:main.c        ****         fingerPosOld = fingerPos;
 207              		.loc 1 117 0
 208 0048 034B     		ldr	r3, .L16+4
 209 004a 5A88     		ldrh	r2, [r3, #2]
 210 004c 9A80     		strh	r2, [r3, #4]
 211              	.L12:
 118:main.c        **** }
 212              		.loc 1 118 0
 213 004e 05B0     		add	sp, sp, #20
 214              		@ sp needed
 215 0050 00BD     		pop	{pc}
 216              	.L17:
 217 0052 C046     		.align	2
 218              	.L16:
 219 0054 00000000 		.word	cyBle_state
 220 0058 00000000 		.word	.LANCHOR1
 221 005c 00000000 		.word	cyBle_connHandle
 222 0060 00000000 		.word	capsenseNotify
 223              		.cfi_endproc
 224              	.LFE37:
ARM GAS  C:\Users\JEROME~1.CRO\AppData\Local\Temp\ccNYogPO.s 			page 7


 225              		.size	updateCapsense, .-updateCapsense
 226              		.section	.text.BleCallBack,"ax",%progbits
 227              		.align	2
 228              		.global	BleCallBack
 229              		.code	16
 230              		.thumb_func
 231              		.type	BleCallBack, %function
 232              	BleCallBack:
 233              	.LFB38:
 119:main.c        **** 
 120:main.c        **** /***************************************************************
 121:main.c        ****  * Function to handle the BLE stack
 122:main.c        ****  **************************************************************/
 123:main.c        **** void BleCallBack(uint32 event, void* eventParam)
 124:main.c        **** {
 234              		.loc 1 124 0
 235              		.cfi_startproc
 236              		@ args = 0, pretend = 0, frame = 16
 237              		@ frame_needed = 0, uses_anonymous_args = 0
 238              	.LVL6:
 239 0000 70B5     		push	{r4, r5, r6, lr}
 240              		.cfi_def_cfa_offset 16
 241              		.cfi_offset 4, -16
 242              		.cfi_offset 5, -12
 243              		.cfi_offset 6, -8
 244              		.cfi_offset 14, -4
 245 0002 84B0     		sub	sp, sp, #16
 246              		.cfi_def_cfa_offset 32
 247 0004 0C00     		movs	r4, r1
 125:main.c        ****     CYBLE_GATTS_WRITE_REQ_PARAM_T *wrReqParam;
 126:main.c        ****     
 127:main.c        ****     
 128:main.c        ****     /* for MTU Exchange */
 129:main.c        ****     CYBLE_GATTC_WRITE_REQ_T writeRequestData =
 248              		.loc 1 129 0
 249 0006 01AA     		add	r2, sp, #4
 250 0008 454B     		ldr	r3, .L29
 251 000a 0833     		adds	r3, r3, #8
 252 000c 1100     		movs	r1, r2
 253              	.LVL7:
 254 000e 60CB     		ldmia	r3!, {r5, r6}
 255 0010 60C1     		stmia	r1!, {r5, r6}
 256 0012 0F23     		movs	r3, #15
 257 0014 1381     		strh	r3, [r2, #8]
 130:main.c        ****     {
 131:main.c        ****         cccdNotifFlagSetStruct,
 132:main.c        ****         0x000F
 133:main.c        ****     };
 134:main.c        ****    
 135:main.c        ****     switch(event)
 258              		.loc 1 135 0
 259 0016 4128     		cmp	r0, #65
 260 0018 17D0     		beq	.L20
 261 001a 06D8     		bhi	.L21
 262 001c 2728     		cmp	r0, #39
 263 001e 63D0     		beq	.L22
 264 0020 2828     		cmp	r0, #40
ARM GAS  C:\Users\JEROME~1.CRO\AppData\Local\Temp\ccNYogPO.s 			page 8


 265 0022 09D0     		beq	.L23
 266 0024 0128     		cmp	r0, #1
 267 0026 79D1     		bne	.L18
 268 0028 06E0     		b	.L23
 269              	.L21:
 270 002a 4428     		cmp	r0, #68
 271 002c 65D0     		beq	.L24
 272 002e 4C28     		cmp	r0, #76
 273 0030 14D0     		beq	.L25
 274 0032 4328     		cmp	r0, #67
 275 0034 72D1     		bne	.L18
 276 0036 69E0     		b	.L26
 277              	.L23:
 136:main.c        ****     {
 137:main.c        ****         /* if there is a disconnect or the stack just turned on from a reset then start the adverti
 138:main.c        ****         case CYBLE_EVT_STACK_ON:
 139:main.c        ****         case CYBLE_EVT_GAP_DEVICE_DISCONNECTED:
 140:main.c        ****             capsenseNotify = 0;
 278              		.loc 1 140 0
 279 0038 0022     		movs	r2, #0
 280 003a 3A4B     		ldr	r3, .L29+4
 281 003c 1A60     		str	r2, [r3]
 141:main.c        ****             CyBle_GappStartAdvertisement(CYBLE_ADVERTISING_FAST);
 282              		.loc 1 141 0
 283 003e 0020     		movs	r0, #0
 284              	.LVL8:
 285 0040 FFF7FEFF 		bl	CyBle_GappStartAdvertisement
 286              	.LVL9:
 142:main.c        ****             pwm_Start();
 287              		.loc 1 142 0
 288 0044 FFF7FEFF 		bl	pwm_Start
 289              	.LVL10:
 143:main.c        ****            
 144:main.c        ****             
 145:main.c        ****         break;
 290              		.loc 1 145 0
 291 0048 68E0     		b	.L18
 292              	.LVL11:
 293              	.L20:
 146:main.c        ****         
 147:main.c        ****         /* when a connection is made, update the LED and Capsense states in the GATT database and s
 148:main.c        ****         case CYBLE_EVT_GATT_CONNECT_IND:
 149:main.c        ****             updateLed();
 294              		.loc 1 149 0
 295 004a FFF7FEFF 		bl	updateLed
 296              	.LVL12:
 150:main.c        ****             updateCapsense();  
 297              		.loc 1 150 0
 298 004e FFF7FEFF 		bl	updateCapsense
 299              	.LVL13:
 151:main.c        ****             updateAnalogIn();
 300              		.loc 1 151 0
 301 0052 FFF7FEFF 		bl	updateAnalogIn
 302              	.LVL14:
 152:main.c        ****             pwm_Stop();
 303              		.loc 1 152 0
 304 0056 FFF7FEFF 		bl	pwm_Stop
ARM GAS  C:\Users\JEROME~1.CRO\AppData\Local\Temp\ccNYogPO.s 			page 9


 305              	.LVL15:
 153:main.c        **** 		break;
 306              		.loc 1 153 0
 307 005a 5FE0     		b	.L18
 308              	.LVL16:
 309              	.L25:
 154:main.c        **** 
 155:main.c        ****         /* handle a write request */
 156:main.c        ****         case CYBLE_EVT_GATTS_WRITE_REQ:
 157:main.c        ****             wrReqParam = (CYBLE_GATTS_WRITE_REQ_PARAM_T *) eventParam;
 158:main.c        **** 			      
 159:main.c        ****             /* request write the LED value */
 160:main.c        ****             if(wrReqParam->handleValPair.attrHandle == CYBLE_LEDCAPSENSE_LED_CHAR_HANDLE)
 310              		.loc 1 160 0
 311 005c A389     		ldrh	r3, [r4, #12]
 312 005e 0E2B     		cmp	r3, #14
 313 0060 15D1     		bne	.L27
 161:main.c        ****             {
 162:main.c        ****                 /* only update the value and write the response if the requested write is allowed *
 163:main.c        ****                 if(CYBLE_GATT_ERR_NONE == CyBle_GattsWriteAttributeValue(&wrReqParam->handleValPair
 314              		.loc 1 163 0
 315 0062 201D     		adds	r0, r4, #4
 316              	.LVL17:
 317 0064 3233     		adds	r3, r3, #50
 318 0066 304A     		ldr	r2, .L29+8
 319 0068 0021     		movs	r1, #0
 320 006a FFF7FEFF 		bl	CyBle_GattsWriteAttributeValue
 321              	.LVL18:
 322 006e 0028     		cmp	r0, #0
 323 0070 0DD1     		bne	.L27
 164:main.c        ****                 {
 165:main.c        ****                     red_Write(!wrReqParam->handleValPair.value.val[0]);
 324              		.loc 1 165 0
 325 0072 6368     		ldr	r3, [r4, #4]
 326 0074 1B78     		ldrb	r3, [r3]
 327 0076 5842     		rsbs	r0, r3, #0
 328 0078 5841     		adcs	r0, r0, r3
 329 007a C0B2     		uxtb	r0, r0
 330 007c FFF7FEFF 		bl	red_Write
 331              	.LVL19:
 166:main.c        ****                     CyBle_GattsWriteRsp(cyBle_connHandle);
 332              		.loc 1 166 0
 333 0080 294A     		ldr	r2, .L29+8
 334 0082 1378     		ldrb	r3, [r2]
 335 0084 5078     		ldrb	r0, [r2, #1]
 336 0086 0002     		lsls	r0, r0, #8
 337 0088 1843     		orrs	r0, r3
 338 008a FFF7FEFF 		bl	CyBle_GattsWriteRsp
 339              	.LVL20:
 340              	.L27:
 167:main.c        ****                 }
 168:main.c        ****             }
 169:main.c        ****             
 170:main.c        ****             /* request to update the CapSense notification */
 171:main.c        ****             if(wrReqParam->handleValPair.attrHandle == CYBLE_LEDCAPSENSE_CAPSENSE_CAPSENSECCCD_DESC
 341              		.loc 1 171 0
 342 008e A389     		ldrh	r3, [r4, #12]
ARM GAS  C:\Users\JEROME~1.CRO\AppData\Local\Temp\ccNYogPO.s 			page 10


 343 0090 122B     		cmp	r3, #18
 344 0092 12D1     		bne	.L28
 172:main.c        ****             {
 173:main.c        ****                 CyBle_GattsWriteAttributeValue(&wrReqParam->handleValPair, 0, &cyBle_connHandle, CY
 345              		.loc 1 173 0
 346 0094 244D     		ldr	r5, .L29+8
 347 0096 201D     		adds	r0, r4, #4
 348 0098 2E33     		adds	r3, r3, #46
 349 009a 2A00     		movs	r2, r5
 350 009c 0021     		movs	r1, #0
 351 009e FFF7FEFF 		bl	CyBle_GattsWriteAttributeValue
 352              	.LVL21:
 174:main.c        ****                 capsenseNotify = wrReqParam->handleValPair.value.val[0] & 0x01;
 353              		.loc 1 174 0
 354 00a2 6368     		ldr	r3, [r4, #4]
 355 00a4 1B78     		ldrb	r3, [r3]
 356 00a6 0122     		movs	r2, #1
 357 00a8 1340     		ands	r3, r2
 358 00aa 1E4A     		ldr	r2, .L29+4
 359 00ac 1360     		str	r3, [r2]
 175:main.c        ****                 CyBle_GattsWriteRsp(cyBle_connHandle);
 360              		.loc 1 175 0
 361 00ae 2B78     		ldrb	r3, [r5]
 362 00b0 6878     		ldrb	r0, [r5, #1]
 363 00b2 0002     		lsls	r0, r0, #8
 364 00b4 1843     		orrs	r0, r3
 365 00b6 FFF7FEFF 		bl	CyBle_GattsWriteRsp
 366              	.LVL22:
 367              	.L28:
 176:main.c        ****             }		
 177:main.c        ****             
 178:main.c        ****             
 179:main.c        ****             /* request to update the AnalogIn notification */
 180:main.c        ****             if(wrReqParam->handleValPair.attrHandle == CYBLE_LEDCAPSENSE_ANALOGIN_AINCCCD_DESC_HAND
 368              		.loc 1 180 0
 369 00ba A389     		ldrh	r3, [r4, #12]
 370 00bc 172B     		cmp	r3, #23
 371 00be 2DD1     		bne	.L18
 181:main.c        ****             {
 182:main.c        ****                 CyBle_GattsWriteAttributeValue(&wrReqParam->handleValPair, 0, &cyBle_connHandle, CY
 372              		.loc 1 182 0
 373 00c0 194D     		ldr	r5, .L29+8
 374 00c2 201D     		adds	r0, r4, #4
 375 00c4 2933     		adds	r3, r3, #41
 376 00c6 2A00     		movs	r2, r5
 377 00c8 0021     		movs	r1, #0
 378 00ca FFF7FEFF 		bl	CyBle_GattsWriteAttributeValue
 379              	.LVL23:
 183:main.c        ****                 capsenseNotify = wrReqParam->handleValPair.value.val[0] & 0x01;
 380              		.loc 1 183 0
 381 00ce 6368     		ldr	r3, [r4, #4]
 382 00d0 1B78     		ldrb	r3, [r3]
 383 00d2 0122     		movs	r2, #1
 384 00d4 1340     		ands	r3, r2
 385 00d6 134A     		ldr	r2, .L29+4
 386 00d8 1360     		str	r3, [r2]
 184:main.c        ****                 CyBle_GattsWriteRsp(cyBle_connHandle);
ARM GAS  C:\Users\JEROME~1.CRO\AppData\Local\Temp\ccNYogPO.s 			page 11


 387              		.loc 1 184 0
 388 00da 2B78     		ldrb	r3, [r5]
 389 00dc 6878     		ldrb	r0, [r5, #1]
 390 00de 0002     		lsls	r0, r0, #8
 391 00e0 1843     		orrs	r0, r3
 392 00e2 FFF7FEFF 		bl	CyBle_GattsWriteRsp
 393              	.LVL24:
 394 00e6 19E0     		b	.L18
 395              	.LVL25:
 396              	.L22:
 185:main.c        ****             }		
 186:main.c        ****             
 187:main.c        **** 			break;  
 188:main.c        **** 
 189:main.c        ****             
 190:main.c        ****         /*  For MTU Exchange */    
 191:main.c        ****         case CYBLE_EVT_GAP_DEVICE_CONNECTED:
 192:main.c        ****             /* Once the devices are connected, the Client will not do a service
 193:main.c        ****              * discovery and will assume that the handles of the Server are 
 194:main.c        ****              * known. This is because discovery of custom service is not a part
 195:main.c        ****              * of the BLE component today and will be in the next upgrade to BLE
 196:main.c        ****              * component. 
 197:main.c        ****              */
 198:main.c        ****             
 199:main.c        ****             /* Initiate an MTU exchange request */
 200:main.c        ****             CyBle_GattcExchangeMtuReq(cyBle_connHandle, CYBLE_GATT_MTU);
 397              		.loc 1 200 0
 398 00e8 0F4A     		ldr	r2, .L29+8
 399 00ea 1378     		ldrb	r3, [r2]
 400 00ec 5078     		ldrb	r0, [r2, #1]
 401              	.LVL26:
 402 00ee 0002     		lsls	r0, r0, #8
 403 00f0 1843     		orrs	r0, r3
 404 00f2 1721     		movs	r1, #23
 405 00f4 FFF7FEFF 		bl	CyBle_GattcExchangeMtuReq
 406              	.LVL27:
 201:main.c        ****          
 202:main.c        ****             break;            
 407              		.loc 1 202 0
 408 00f8 10E0     		b	.L18
 409              	.LVL28:
 410              	.L24:
 203:main.c        **** 
 204:main.c        ****         case CYBLE_EVT_GATTC_XCHNG_MTU_RSP:
 205:main.c        ****             /* Enable notifications on the characteristic to get data from the 
 206:main.c        ****              * Server.
 207:main.c        ****              */
 208:main.c        ****             CyBle_GattcWriteCharacteristicDescriptors(cyBle_connHandle, &writeRequestData);
 411              		.loc 1 208 0
 412 00fa 0B4A     		ldr	r2, .L29+8
 413 00fc 1378     		ldrb	r3, [r2]
 414 00fe 5078     		ldrb	r0, [r2, #1]
 415              	.LVL29:
 416 0100 0002     		lsls	r0, r0, #8
 417 0102 1843     		orrs	r0, r3
 418 0104 01A9     		add	r1, sp, #4
 419 0106 FFF7FEFF 		bl	CyBle_GattcWriteCharacteristicDescriptors
ARM GAS  C:\Users\JEROME~1.CRO\AppData\Local\Temp\ccNYogPO.s 			page 12


 420              	.LVL30:
 209:main.c        ****             break;
 421              		.loc 1 209 0
 422 010a 07E0     		b	.L18
 423              	.LVL31:
 424              	.L26:
 210:main.c        ****             
 211:main.c        ****         case CYBLE_EVT_GATTS_XCNHG_MTU_REQ:
 212:main.c        **** 
 213:main.c        ****             CyBle_GattsExchangeMtuRsp(cyBle_connHandle, CYBLE_GATT_MTU);
 425              		.loc 1 213 0
 426 010c 064A     		ldr	r2, .L29+8
 427 010e 1378     		ldrb	r3, [r2]
 428 0110 5078     		ldrb	r0, [r2, #1]
 429              	.LVL32:
 430 0112 0002     		lsls	r0, r0, #8
 431 0114 1843     		orrs	r0, r3
 432 0116 1721     		movs	r1, #23
 433 0118 FFF7FEFF 		bl	CyBle_GattsExchangeMtuRsp
 434              	.LVL33:
 435              	.L18:
 214:main.c        **** 
 215:main.c        ****             break;            
 216:main.c        ****             
 217:main.c        ****             
 218:main.c        ****         default:
 219:main.c        ****             break;
 220:main.c        ****     }
 221:main.c        **** } 
 436              		.loc 1 221 0
 437 011c 04B0     		add	sp, sp, #16
 438              		@ sp needed
 439              	.LVL34:
 440 011e 70BD     		pop	{r4, r5, r6, pc}
 441              	.L30:
 442              		.align	2
 443              	.L29:
 444 0120 00000000 		.word	.LANCHOR1
 445 0124 00000000 		.word	capsenseNotify
 446 0128 00000000 		.word	cyBle_connHandle
 447              		.cfi_endproc
 448              	.LFE38:
 449              		.size	BleCallBack, .-BleCallBack
 450              		.section	.text.main,"ax",%progbits
 451              		.align	2
 452              		.global	main
 453              		.code	16
 454              		.thumb_func
 455              		.type	main, %function
 456              	main:
 457              	.LFB39:
 222:main.c        **** 
 223:main.c        **** /***************************************************************
 224:main.c        ****  * Main
 225:main.c        ****  **************************************************************/
 226:main.c        **** int main()
 227:main.c        **** {
ARM GAS  C:\Users\JEROME~1.CRO\AppData\Local\Temp\ccNYogPO.s 			page 13


 458              		.loc 1 227 0
 459              		.cfi_startproc
 460              		@ Volatile: function does not return.
 461              		@ args = 0, pretend = 0, frame = 0
 462              		@ frame_needed = 0, uses_anonymous_args = 0
 463 0000 10B5     		push	{r4, lr}
 464              		.cfi_def_cfa_offset 8
 465              		.cfi_offset 4, -8
 466              		.cfi_offset 14, -4
 228:main.c        ****     CyGlobalIntEnable; 
 467              		.loc 1 228 0
 468              		.syntax divided
 469              	@ 228 "main.c" 1
 470 0002 62B6     		CPSIE   i
 471              	@ 0 "" 2
 229:main.c        ****     
 230:main.c        ****     capsense_Start();
 472              		.loc 1 230 0
 473              		.thumb
 474              		.syntax unified
 475 0004 FFF7FEFF 		bl	capsense_Start
 476              	.LVL35:
 231:main.c        ****     capsense_InitializeEnabledBaselines();
 477              		.loc 1 231 0
 478 0008 FFF7FEFF 		bl	capsense_InitializeEnabledBaselines
 479              	.LVL36:
 232:main.c        ****     
 233:main.c        ****     /* Start BLE stack and register the callback function */
 234:main.c        ****     CyBle_Start(BleCallBack);
 480              		.loc 1 234 0
 481 000c 1748     		ldr	r0, .L36
 482 000e FFF7FEFF 		bl	CyBle_Start
 483              	.LVL37:
 235:main.c        ****     
 236:main.c        ****     
 237:main.c        ****     /* StartConvert() must be called to initiate 
 238:main.c        ****        conversion in Free Running Mode */
 239:main.c        ****     ADC_Start();
 484              		.loc 1 239 0
 485 0012 FFF7FEFF 		bl	ADC_Start
 486              	.LVL38:
 240:main.c        ****     ADC_StartConvert();
 487              		.loc 1 240 0
 488 0016 FFF7FEFF 		bl	ADC_StartConvert
 489              	.LVL39:
 490              	.L35:
 241:main.c        **** 
 242:main.c        ****     for(;;)
 243:main.c        ****     {        
 244:main.c        ****         /* if Capsense scan is done, read the value and start another scan */
 245:main.c        **** //        if(!capsense_IsBusy())
 246:main.c        **** //        {
 247:main.c        **** //            fingerPos=capsense_GetCentroidPos(capsense_LINEARSLIDER0__LS);
 248:main.c        **** //            analogIn = ADC_GetResult16(0u);
 249:main.c        **** //            
 250:main.c        **** //            capsense_UpdateEnabledBaselines();
 251:main.c        **** //            capsense_ScanEnabledWidgets();
ARM GAS  C:\Users\JEROME~1.CRO\AppData\Local\Temp\ccNYogPO.s 			page 14


 252:main.c        **** //            updateCapsense();
 253:main.c        **** //            updateAnalogIn();
 254:main.c        **** //
 255:main.c        **** //        }
 256:main.c        ****         if(!capsense_IsBusy())
 491              		.loc 1 256 0
 492 001a FFF7FEFF 		bl	capsense_IsBusy
 493              	.LVL40:
 494 001e 0028     		cmp	r0, #0
 495 0020 1ED1     		bne	.L32
 257:main.c        ****         {
 258:main.c        ****             fingerPos=capsense_GetCentroidPos(capsense_LINEARSLIDER0__LS);
 496              		.loc 1 258 0
 497 0022 FFF7FEFF 		bl	capsense_GetCentroidPos
 498              	.LVL41:
 499 0026 124B     		ldr	r3, .L36+4
 500 0028 5880     		strh	r0, [r3, #2]
 259:main.c        ****             
 260:main.c        ****             for ( a = 0 ; a <nSamples; a=a+1)
 501              		.loc 1 260 0
 502 002a 0022     		movs	r2, #0
 503 002c 114B     		ldr	r3, .L36+8
 504 002e 1A80     		strh	r2, [r3]
 505 0030 08E0     		b	.L33
 506              	.L34:
 261:main.c        ****                 analogIn[a] = ADC_GetResult16(0u);
 507              		.loc 1 261 0 discriminator 3
 508 0032 0020     		movs	r0, #0
 509 0034 FFF7FEFF 		bl	ADC_GetResult16
 510              	.LVL42:
 511 0038 0F4B     		ldr	r3, .L36+12
 512 003a 1855     		strb	r0, [r3, r4]
 260:main.c        ****                 analogIn[a] = ADC_GetResult16(0u);
 513              		.loc 1 260 0 discriminator 3
 514 003c 0D4A     		ldr	r2, .L36+8
 515 003e 1388     		ldrh	r3, [r2]
 516 0040 0133     		adds	r3, r3, #1
 517 0042 1380     		strh	r3, [r2]
 518              	.L33:
 260:main.c        ****                 analogIn[a] = ADC_GetResult16(0u);
 519              		.loc 1 260 0 is_stmt 0 discriminator 1
 520 0044 0A4B     		ldr	r3, .L36+4
 521 0046 1B78     		ldrb	r3, [r3]
 522 0048 0A4A     		ldr	r2, .L36+8
 523 004a 1488     		ldrh	r4, [r2]
 524 004c A342     		cmp	r3, r4
 525 004e F0D8     		bhi	.L34
 262:main.c        ****                 
 263:main.c        ****             capsense_UpdateEnabledBaselines();
 526              		.loc 1 263 0 is_stmt 1
 527 0050 FFF7FEFF 		bl	capsense_UpdateEnabledBaselines
 528              	.LVL43:
 264:main.c        ****             capsense_ScanEnabledWidgets();
 529              		.loc 1 264 0
 530 0054 FFF7FEFF 		bl	capsense_ScanEnabledWidgets
 531              	.LVL44:
 265:main.c        ****             updateCapsense();
ARM GAS  C:\Users\JEROME~1.CRO\AppData\Local\Temp\ccNYogPO.s 			page 15


 532              		.loc 1 265 0
 533 0058 FFF7FEFF 		bl	updateCapsense
 534              	.LVL45:
 266:main.c        ****             updateAnalogIn();
 535              		.loc 1 266 0
 536 005c FFF7FEFF 		bl	updateAnalogIn
 537              	.LVL46:
 538              	.L32:
 267:main.c        **** 
 268:main.c        ****         }
 269:main.c        ****         
 270:main.c        ****         
 271:main.c        ****         CyBle_ProcessEvents();
 539              		.loc 1 271 0
 540 0060 FFF7FEFF 		bl	CyBle_ProcessEvents
 541              	.LVL47:
 272:main.c        ****         CyBle_EnterLPM(CYBLE_BLESS_DEEPSLEEP);    
 542              		.loc 1 272 0
 543 0064 0320     		movs	r0, #3
 544 0066 FFF7FEFF 		bl	CyBle_EnterLPM
 545              	.LVL48:
 273:main.c        ****     }
 546              		.loc 1 273 0
 547 006a D6E7     		b	.L35
 548              	.L37:
 549              		.align	2
 550              	.L36:
 551 006c 00000000 		.word	BleCallBack
 552 0070 00000000 		.word	.LANCHOR1
 553 0074 00000000 		.word	a
 554 0078 00000000 		.word	.LANCHOR0
 555              		.cfi_endproc
 556              	.LFE39:
 557              		.size	main, .-main
 558              		.global	cccdNotifFlagSetStruct
 559              		.global	cccdNotifEnabledValue
 560              		.comm	capsenseNotify,4,4
 561              		.comm	a,2,2
 562              		.global	analogInOld
 563              		.global	analogIn
 564              		.global	nSamples
 565              		.global	fingerPosOld
 566              		.global	fingerPos
 567              		.data
 568              		.align	2
 569              		.set	.LANCHOR1,. + 0
 570              		.type	nSamples, %object
 571              		.size	nSamples, 1
 572              	nSamples:
 573 0000 14       		.byte	20
 574 0001 00       		.space	1
 575              		.type	fingerPos, %object
 576              		.size	fingerPos, 2
 577              	fingerPos:
 578 0002 FFFF     		.short	-1
 579              		.type	fingerPosOld, %object
 580              		.size	fingerPosOld, 2
ARM GAS  C:\Users\JEROME~1.CRO\AppData\Local\Temp\ccNYogPO.s 			page 16


 581              	fingerPosOld:
 582 0004 FFFF     		.short	-1
 583 0006 0000     		.space	2
 584              		.type	cccdNotifFlagSetStruct, %object
 585              		.size	cccdNotifFlagSetStruct, 8
 586              	cccdNotifFlagSetStruct:
 587 0008 00000000 		.word	cccdNotifEnabledValue
 588 000c 0200     		.short	2
 589 000e 0000     		.short	0
 590              		.type	cccdNotifEnabledValue, %object
 591              		.size	cccdNotifEnabledValue, 2
 592              	cccdNotifEnabledValue:
 593 0010 01       		.byte	1
 594 0011 00       		.byte	0
 595              		.bss
 596              		.align	2
 597              		.set	.LANCHOR0,. + 0
 598              		.type	analogIn, %object
 599              		.size	analogIn, 20
 600              	analogIn:
 601 0000 00000000 		.space	20
 601      00000000 
 601      00000000 
 601      00000000 
 601      00000000 
 602              		.type	analogInOld, %object
 603              		.size	analogInOld, 20
 604              	analogInOld:
 605 0014 00000000 		.space	20
 605      00000000 
 605      00000000 
 605      00000000 
 605      00000000 
 606              		.text
 607              	.Letext0:
 608              		.file 2 "Generated_Source\\PSoC4/cytypes.h"
 609              		.file 3 "Generated_Source\\PSoC4/ble_Stack.h"
 610              		.file 4 "Generated_Source\\PSoC4/ble_StackGatt.h"
 611              		.file 5 "Generated_Source\\PSoC4/ble_StackGattServer.h"
 612              		.file 6 "Generated_Source\\PSoC4/ble_StackGattClient.h"
 613              		.file 7 "Generated_Source\\PSoC4/ble_eventHandler.h"
 614              		.file 8 "Generated_Source\\PSoC4/ble_StackGattDb.h"
 615              		.file 9 "Generated_Source\\PSoC4/red.h"
 616              		.file 10 "Generated_Source\\PSoC4/ble.h"
 617              		.file 11 "Generated_Source\\PSoC4/pwm.h"
 618              		.file 12 "Generated_Source\\PSoC4/capsense.h"
 619              		.file 13 "Generated_Source\\PSoC4/capsense_CSHL.h"
 620              		.file 14 "Generated_Source\\PSoC4/ADC.h"