ARM GAS  C:\Users\JEROME~1.CRO\AppData\Local\Temp\ccuIm99c.s 			page 1


   1              		.syntax unified
   2              		.cpu cortex-m0
   3              		.fpu softvfp
   4              		.eabi_attribute 20, 1
   5              		.eabi_attribute 21, 1
   6              		.eabi_attribute 23, 3
   7              		.eabi_attribute 24, 1
   8              		.eabi_attribute 25, 1
   9              		.eabi_attribute 26, 1
  10              		.eabi_attribute 30, 1
  11              		.eabi_attribute 34, 0
  12              		.eabi_attribute 18, 4
  13              		.thumb
  14              		.syntax unified
  15              		.file	"main.c"
  16              		.text
  17              	.Ltext0:
  18              		.cfi_sections	.debug_frame
  19              		.section	.text.updateAnalogIn,"ax",%progbits
  20              		.align	2
  21              		.global	updateAnalogIn
  22              		.code	16
  23              		.thumb_func
  24              		.type	updateAnalogIn, %function
  25              	updateAnalogIn:
  26              	.LFB35:
  27              		.file 1 "main.c"
   1:main.c        **** #include <project.h>
   2:main.c        **** #define MAX_MTU_SIZE                (512)
   3:main.c        **** #define DEFAULT_MTU_SIZE            (23)
   4:main.c        **** 
   5:main.c        **** 
   6:main.c        **** /*******************************************************************************
   7:main.c        **** * Variables
   8:main.c        **** *******************************************************************************/
   9:main.c        **** uint16 negotiatedMtu = DEFAULT_MTU_SIZE;
  10:main.c        **** 
  11:main.c        **** 
  12:main.c        **** uint16 fingerPos    = 0xFFFF;
  13:main.c        **** uint16 fingerPosOld = 0xFFFF;
  14:main.c        **** 
  15:main.c        **** 
  16:main.c        **** uint16 nSamples             = 512;
  17:main.c        **** uint8 analogIn[512]         ={0};
  18:main.c        **** uint8 analogInOld[512]      ={0};
  19:main.c        **** uint16 a;
  20:main.c        **** 
  21:main.c        **** 
  22:main.c        **** 
  23:main.c        **** int capsenseNotify;
  24:main.c        **** 
  25:main.c        **** /***************************************************************
  26:main.c        ****  * Function to update the LED state in the GATT database
  27:main.c        ****  **************************************************************/
  28:main.c        **** //uint16 analogIn    =  0xFFFF;
  29:main.c        **** //uint16 analogInOld  = 0xFFFF;
  30:main.c        **** //void updateAnalogIn()
ARM GAS  C:\Users\JEROME~1.CRO\AppData\Local\Temp\ccuIm99c.s 			page 2


  31:main.c        **** //{
  32:main.c        **** //    
  33:main.c        **** //    if(CyBle_GetState() != CYBLE_STATE_CONNECTED)
  34:main.c        **** //        return;
  35:main.c        **** //    
  36:main.c        **** //    CYBLE_GATTS_HANDLE_VALUE_NTF_T 	tempHandle;
  37:main.c        **** //   
  38:main.c        **** //    tempHandle.attrHandle = CYBLE_LEDCAPSENSE_ANALOGIN_CHAR_HANDLE;
  39:main.c        **** //  	tempHandle.value.val = (uint8 *) &analogIn;
  40:main.c        **** //    tempHandle.value.len = 2; 
  41:main.c        **** //    CyBle_GattsWriteAttributeValue(&tempHandle,0,&cyBle_connHandle,CYBLE_GATT_DB_LOCALLY_INITIATE
  42:main.c        **** //    
  43:main.c        **** //    /* send notification to client if notifications are enabled and finger location has changed *
  44:main.c        **** //    if (capsenseNotify  && (analogIn != analogInOld) )//TODO:  Always Updating
  45:main.c        **** //    
  46:main.c        **** //        CyBle_GattsNotification(cyBle_connHandle,&tempHandle);
  47:main.c        **** //        analogInOld = analogIn;
  48:main.c        **** //    
  49:main.c        **** //}
  50:main.c        **** 
  51:main.c        **** 
  52:main.c        **** void updateAnalogIn()
  53:main.c        **** {
  28              		.loc 1 53 0
  29              		.cfi_startproc
  30              		@ args = 0, pretend = 0, frame = 16
  31              		@ frame_needed = 0, uses_anonymous_args = 0
  32 0000 00B5     		push	{lr}
  33              		.cfi_def_cfa_offset 4
  34              		.cfi_offset 14, -4
  35 0002 85B0     		sub	sp, sp, #20
  36              		.cfi_def_cfa_offset 24
  54:main.c        ****     
  55:main.c        ****     if(CyBle_GetState() != CYBLE_STATE_CONNECTED)
  37              		.loc 1 55 0
  38 0004 0F4B     		ldr	r3, .L5
  39 0006 1B78     		ldrb	r3, [r3]
  40 0008 022B     		cmp	r3, #2
  41 000a 19D1     		bne	.L1
  56:main.c        ****         return;
  57:main.c        ****     
  58:main.c        ****     CYBLE_GATTS_HANDLE_VALUE_NTF_T 	tempHandle;
  59:main.c        ****    
  60:main.c        ****     tempHandle.attrHandle = CYBLE_LEDCAPSENSE_ANALOGIN_CHAR_HANDLE;
  42              		.loc 1 60 0
  43 000c 01A8     		add	r0, sp, #4
  44 000e 1333     		adds	r3, r3, #19
  45 0010 0381     		strh	r3, [r0, #8]
  61:main.c        ****   	tempHandle.value.val = analogIn;
  46              		.loc 1 61 0
  47 0012 0D4B     		ldr	r3, .L5+4
  48 0014 0193     		str	r3, [sp, #4]
  62:main.c        ****     tempHandle.value.len = negotiatedMtu-3;  //TODO:  CHANGED TO 23
  49              		.loc 1 62 0
  50 0016 0D4B     		ldr	r3, .L5+8
  51 0018 1B88     		ldrh	r3, [r3]
  52 001a 033B     		subs	r3, r3, #3
ARM GAS  C:\Users\JEROME~1.CRO\AppData\Local\Temp\ccuIm99c.s 			page 3


  53 001c 8380     		strh	r3, [r0, #4]
  63:main.c        ****     CyBle_GattsWriteAttributeValue(&tempHandle,0,&cyBle_connHandle,CYBLE_GATT_DB_LOCALLY_INITIATED)
  54              		.loc 1 63 0
  55 001e 0023     		movs	r3, #0
  56 0020 0B4A     		ldr	r2, .L5+12
  57 0022 0021     		movs	r1, #0
  58 0024 FFF7FEFF 		bl	CyBle_GattsWriteAttributeValue
  59              	.LVL0:
  64:main.c        ****     
  65:main.c        ****     /* send notification to client if notifications are enabled and finger location has changed */
  66:main.c        ****     if (capsenseNotify)//&& (analogIn[0] != analogInOld[0]) )//TODO:  Always Updating
  60              		.loc 1 66 0
  61 0028 0A4B     		ldr	r3, .L5+16
  62 002a 1B68     		ldr	r3, [r3]
  63 002c 002B     		cmp	r3, #0
  64 002e 07D0     		beq	.L1
  67:main.c        ****         CyBle_GattsNotification(cyBle_connHandle,&tempHandle);
  65              		.loc 1 67 0
  66 0030 074A     		ldr	r2, .L5+12
  67 0032 1378     		ldrb	r3, [r2]
  68 0034 5078     		ldrb	r0, [r2, #1]
  69 0036 0002     		lsls	r0, r0, #8
  70 0038 1843     		orrs	r0, r3
  71 003a 01A9     		add	r1, sp, #4
  72 003c FFF7FEFF 		bl	CyBle_GattsNotification
  73              	.LVL1:
  74              	.L1:
  68:main.c        **** 
  69:main.c        **** }
  75              		.loc 1 69 0
  76 0040 05B0     		add	sp, sp, #20
  77              		@ sp needed
  78 0042 00BD     		pop	{pc}
  79              	.L6:
  80              		.align	2
  81              	.L5:
  82 0044 00000000 		.word	cyBle_state
  83 0048 00000000 		.word	.LANCHOR0
  84 004c 00000000 		.word	.LANCHOR1
  85 0050 00000000 		.word	cyBle_connHandle
  86 0054 00000000 		.word	capsenseNotify
  87              		.cfi_endproc
  88              	.LFE35:
  89              		.size	updateAnalogIn, .-updateAnalogIn
  90              		.section	.text.updateLed,"ax",%progbits
  91              		.align	2
  92              		.global	updateLed
  93              		.code	16
  94              		.thumb_func
  95              		.type	updateLed, %function
  96              	updateLed:
  97              	.LFB36:
  70:main.c        **** 
  71:main.c        **** 
  72:main.c        **** /***************************************************************
  73:main.c        ****  * Function to update the LED state in the GATT database
  74:main.c        ****  **************************************************************/
ARM GAS  C:\Users\JEROME~1.CRO\AppData\Local\Temp\ccuIm99c.s 			page 4


  75:main.c        **** void updateLed()
  76:main.c        **** {
  98              		.loc 1 76 0
  99              		.cfi_startproc
 100              		@ args = 0, pretend = 0, frame = 16
 101              		@ frame_needed = 0, uses_anonymous_args = 0
 102 0000 00B5     		push	{lr}
 103              		.cfi_def_cfa_offset 4
 104              		.cfi_offset 14, -4
 105 0002 85B0     		sub	sp, sp, #20
 106              		.cfi_def_cfa_offset 24
  77:main.c        ****     CYBLE_GATTS_HANDLE_VALUE_NTF_T 	tempHandle;
  78:main.c        ****    
  79:main.c        ****     uint8 red_State = !red_Read();
 107              		.loc 1 79 0
 108 0004 FFF7FEFF 		bl	red_Read
 109              	.LVL2:
 110 0008 4342     		rsbs	r3, r0, #0
 111 000a 4341     		adcs	r3, r3, r0
 112 000c 6A46     		mov	r2, sp
 113 000e D370     		strb	r3, [r2, #3]
 114 0010 0332     		adds	r2, r2, #3
  80:main.c        ****     
  81:main.c        ****     if(CyBle_GetState() != CYBLE_STATE_CONNECTED)
 115              		.loc 1 81 0
 116 0012 084B     		ldr	r3, .L10
 117 0014 1B78     		ldrb	r3, [r3]
 118 0016 022B     		cmp	r3, #2
 119 0018 0AD1     		bne	.L7
  82:main.c        ****         return;
  83:main.c        ****     
  84:main.c        ****     tempHandle.attrHandle = CYBLE_LEDCAPSENSE_LED_CHAR_HANDLE;
 120              		.loc 1 84 0
 121 001a 01A8     		add	r0, sp, #4
 122 001c 0C33     		adds	r3, r3, #12
 123 001e 0381     		strh	r3, [r0, #8]
  85:main.c        ****   	tempHandle.value.val = (uint8 *) &red_State;
 124              		.loc 1 85 0
 125 0020 0192     		str	r2, [sp, #4]
  86:main.c        ****     tempHandle.value.len = 1;
 126              		.loc 1 86 0
 127 0022 0123     		movs	r3, #1
 128 0024 8380     		strh	r3, [r0, #4]
  87:main.c        ****     CyBle_GattsWriteAttributeValue(&tempHandle,0,&cyBle_connHandle,CYBLE_GATT_DB_LOCALLY_INITIATED)
 129              		.loc 1 87 0
 130 0026 0023     		movs	r3, #0
 131 0028 034A     		ldr	r2, .L10+4
 132 002a 0021     		movs	r1, #0
 133 002c FFF7FEFF 		bl	CyBle_GattsWriteAttributeValue
 134              	.LVL3:
 135              	.L7:
  88:main.c        **** }
 136              		.loc 1 88 0
 137 0030 05B0     		add	sp, sp, #20
 138              		@ sp needed
 139 0032 00BD     		pop	{pc}
 140              	.L11:
ARM GAS  C:\Users\JEROME~1.CRO\AppData\Local\Temp\ccuIm99c.s 			page 5


 141              		.align	2
 142              	.L10:
 143 0034 00000000 		.word	cyBle_state
 144 0038 00000000 		.word	cyBle_connHandle
 145              		.cfi_endproc
 146              	.LFE36:
 147              		.size	updateLed, .-updateLed
 148              		.section	.text.updateCapsense,"ax",%progbits
 149              		.align	2
 150              		.global	updateCapsense
 151              		.code	16
 152              		.thumb_func
 153              		.type	updateCapsense, %function
 154              	updateCapsense:
 155              	.LFB37:
  89:main.c        **** 
  90:main.c        **** /***************************************************************
  91:main.c        ****  * Function to update the CapSesnse state in the GATT database
  92:main.c        ****  **************************************************************/
  93:main.c        **** void updateCapsense()
  94:main.c        **** {
 156              		.loc 1 94 0
 157              		.cfi_startproc
 158              		@ args = 0, pretend = 0, frame = 16
 159              		@ frame_needed = 0, uses_anonymous_args = 0
 160 0000 00B5     		push	{lr}
 161              		.cfi_def_cfa_offset 4
 162              		.cfi_offset 14, -4
 163 0002 85B0     		sub	sp, sp, #20
 164              		.cfi_def_cfa_offset 24
  95:main.c        ****     if(CyBle_GetState() != CYBLE_STATE_CONNECTED)
 165              		.loc 1 95 0
 166 0004 134B     		ldr	r3, .L16
 167 0006 1B78     		ldrb	r3, [r3]
 168 0008 022B     		cmp	r3, #2
 169 000a 20D1     		bne	.L12
  96:main.c        ****         return;
  97:main.c        ****     
  98:main.c        **** 	CYBLE_GATTS_HANDLE_VALUE_NTF_T 	tempHandle;
  99:main.c        ****     
 100:main.c        ****     tempHandle.attrHandle = CYBLE_LEDCAPSENSE_CAPSENSE_CHAR_HANDLE;
 170              		.loc 1 100 0
 171 000c 01A8     		add	r0, sp, #4
 172 000e 0F33     		adds	r3, r3, #15
 173 0010 0381     		strh	r3, [r0, #8]
 101:main.c        ****   	tempHandle.value.val = (uint8 *)&fingerPos;
 174              		.loc 1 101 0
 175 0012 114B     		ldr	r3, .L16+4
 176 0014 0233     		adds	r3, r3, #2
 177 0016 0193     		str	r3, [sp, #4]
 102:main.c        ****     tempHandle.value.len = 2; 
 178              		.loc 1 102 0
 179 0018 0223     		movs	r3, #2
 180 001a 8380     		strh	r3, [r0, #4]
 103:main.c        ****     CyBle_GattsWriteAttributeValue(&tempHandle,0,&cyBle_connHandle,CYBLE_GATT_DB_LOCALLY_INITIATED 
 181              		.loc 1 103 0
 182 001c 0023     		movs	r3, #0
ARM GAS  C:\Users\JEROME~1.CRO\AppData\Local\Temp\ccuIm99c.s 			page 6


 183 001e 0F4A     		ldr	r2, .L16+8
 184 0020 0021     		movs	r1, #0
 185 0022 FFF7FEFF 		bl	CyBle_GattsWriteAttributeValue
 186              	.LVL4:
 104:main.c        ****     
 105:main.c        ****     /* send notification to client if notifications are enabled and finger location has changed */
 106:main.c        ****     if (capsenseNotify && (fingerPos != fingerPosOld) )
 187              		.loc 1 106 0
 188 0026 0E4B     		ldr	r3, .L16+12
 189 0028 1B68     		ldr	r3, [r3]
 190 002a 002B     		cmp	r3, #0
 191 002c 0CD0     		beq	.L14
 192              		.loc 1 106 0 is_stmt 0 discriminator 1
 193 002e 0A4B     		ldr	r3, .L16+4
 194 0030 5A88     		ldrh	r2, [r3, #2]
 195 0032 9B88     		ldrh	r3, [r3, #4]
 196 0034 9A42     		cmp	r2, r3
 197 0036 07D0     		beq	.L14
 107:main.c        ****         CyBle_GattsNotification(cyBle_connHandle,&tempHandle);
 198              		.loc 1 107 0 is_stmt 1
 199 0038 084A     		ldr	r2, .L16+8
 200 003a 1378     		ldrb	r3, [r2]
 201 003c 5078     		ldrb	r0, [r2, #1]
 202 003e 0002     		lsls	r0, r0, #8
 203 0040 1843     		orrs	r0, r3
 204 0042 01A9     		add	r1, sp, #4
 205 0044 FFF7FEFF 		bl	CyBle_GattsNotification
 206              	.LVL5:
 207              	.L14:
 108:main.c        ****         fingerPosOld = fingerPos;
 208              		.loc 1 108 0
 209 0048 034B     		ldr	r3, .L16+4
 210 004a 5A88     		ldrh	r2, [r3, #2]
 211 004c 9A80     		strh	r2, [r3, #4]
 212              	.L12:
 109:main.c        **** }
 213              		.loc 1 109 0
 214 004e 05B0     		add	sp, sp, #20
 215              		@ sp needed
 216 0050 00BD     		pop	{pc}
 217              	.L17:
 218 0052 C046     		.align	2
 219              	.L16:
 220 0054 00000000 		.word	cyBle_state
 221 0058 00000000 		.word	.LANCHOR1
 222 005c 00000000 		.word	cyBle_connHandle
 223 0060 00000000 		.word	capsenseNotify
 224              		.cfi_endproc
 225              	.LFE37:
 226              		.size	updateCapsense, .-updateCapsense
 227              		.section	.rodata.cst2,"aM",%progbits,2
 228              		.align	1
 229              	.LC15:
 230 0000 0002     		.short	512
 231              		.section	.text.BleCallBack,"ax",%progbits
 232              		.align	2
 233              		.global	BleCallBack
ARM GAS  C:\Users\JEROME~1.CRO\AppData\Local\Temp\ccuIm99c.s 			page 7


 234              		.code	16
 235              		.thumb_func
 236              		.type	BleCallBack, %function
 237              	BleCallBack:
 238              	.LFB38:
 110:main.c        **** 
 111:main.c        **** /***************************************************************
 112:main.c        ****  * Function to handle the BLE stack
 113:main.c        ****  **************************************************************/
 114:main.c        **** void BleCallBack(uint32 event, void* eventParam)
 115:main.c        **** {
 239              		.loc 1 115 0
 240              		.cfi_startproc
 241              		@ args = 0, pretend = 0, frame = 0
 242              		@ frame_needed = 0, uses_anonymous_args = 0
 243              	.LVL6:
 244 0000 70B5     		push	{r4, r5, r6, lr}
 245              		.cfi_def_cfa_offset 16
 246              		.cfi_offset 4, -16
 247              		.cfi_offset 5, -12
 248              		.cfi_offset 6, -8
 249              		.cfi_offset 14, -4
 250 0002 0C00     		movs	r4, r1
 116:main.c        ****     CYBLE_GATTS_WRITE_REQ_PARAM_T *wrReqParam;
 117:main.c        ****    
 118:main.c        ****     switch(event)
 251              		.loc 1 118 0
 252 0004 4128     		cmp	r0, #65
 253 0006 13D0     		beq	.L20
 254 0008 04D8     		bhi	.L21
 255 000a 0128     		cmp	r0, #1
 256 000c 07D0     		beq	.L22
 257 000e 2828     		cmp	r0, #40
 258 0010 05D0     		beq	.L22
 259 0012 66E0     		b	.L18
 260              	.L21:
 261 0014 4328     		cmp	r0, #67
 262 0016 14D0     		beq	.L23
 263 0018 4C28     		cmp	r0, #76
 264 001a 1DD0     		beq	.L24
 265 001c 61E0     		b	.L18
 266              	.L22:
 119:main.c        ****     {
 120:main.c        ****         /* if there is a disconnect or the stack just turned on from a reset then start the adverti
 121:main.c        ****         case CYBLE_EVT_STACK_ON:
 122:main.c        ****         case CYBLE_EVT_GAP_DEVICE_DISCONNECTED:
 123:main.c        ****             capsenseNotify = 0;
 267              		.loc 1 123 0
 268 001e 0022     		movs	r2, #0
 269 0020 304B     		ldr	r3, .L28
 270 0022 1A60     		str	r2, [r3]
 124:main.c        ****             CyBle_GappStartAdvertisement(CYBLE_ADVERTISING_FAST);
 271              		.loc 1 124 0
 272 0024 0020     		movs	r0, #0
 273              	.LVL7:
 274 0026 FFF7FEFF 		bl	CyBle_GappStartAdvertisement
 275              	.LVL8:
ARM GAS  C:\Users\JEROME~1.CRO\AppData\Local\Temp\ccuIm99c.s 			page 8


 125:main.c        ****             pwm_Start();
 276              		.loc 1 125 0
 277 002a FFF7FEFF 		bl	pwm_Start
 278              	.LVL9:
 126:main.c        ****            
 127:main.c        ****             
 128:main.c        ****         break;
 279              		.loc 1 128 0
 280 002e 58E0     		b	.L18
 281              	.LVL10:
 282              	.L20:
 129:main.c        ****         
 130:main.c        ****         /* when a connection is made, update the LED and Capsense states in the GATT database and s
 131:main.c        ****         case CYBLE_EVT_GATT_CONNECT_IND:
 132:main.c        ****             updateLed();
 283              		.loc 1 132 0
 284 0030 FFF7FEFF 		bl	updateLed
 285              	.LVL11:
 133:main.c        ****             updateCapsense();  
 286              		.loc 1 133 0
 287 0034 FFF7FEFF 		bl	updateCapsense
 288              	.LVL12:
 134:main.c        ****             updateAnalogIn();
 289              		.loc 1 134 0
 290 0038 FFF7FEFF 		bl	updateAnalogIn
 291              	.LVL13:
 135:main.c        ****             pwm_Stop();
 292              		.loc 1 135 0
 293 003c FFF7FEFF 		bl	pwm_Stop
 294              	.LVL14:
 136:main.c        **** 		break;
 295              		.loc 1 136 0
 296 0040 4FE0     		b	.L18
 297              	.LVL15:
 298              	.L23:
 137:main.c        **** 
 138:main.c        ****             
 139:main.c        ****             
 140:main.c        ****         case CYBLE_EVT_GATTS_XCNHG_MTU_REQ:
 141:main.c        ****         negotiatedMtu = (((CYBLE_GATT_XCHG_MTU_PARAM_T *)eventParam)->mtu < CYBLE_GATT_MTU) ?
 299              		.loc 1 141 0
 300 0042 4B88     		ldrh	r3, [r1, #2]
 301 0044 1A1C     		adds	r2, r3, #0
 302 0046 8021     		movs	r1, #128
 303              	.LVL16:
 304 0048 8900     		lsls	r1, r1, #2
 305 004a 8B42     		cmp	r3, r1
 306 004c 01D9     		bls	.L25
 307 004e 264B     		ldr	r3, .L28+4
 308 0050 1A88     		ldrh	r2, [r3]
 309              	.L25:
 310 0052 264B     		ldr	r3, .L28+8
 311 0054 1A80     		strh	r2, [r3]
 142:main.c        ****                         ((CYBLE_GATT_XCHG_MTU_PARAM_T *)eventParam)->mtu : CYBLE_GATT_MTU;
 143:main.c        ****         break;
 312              		.loc 1 143 0
 313 0056 44E0     		b	.L18
ARM GAS  C:\Users\JEROME~1.CRO\AppData\Local\Temp\ccuIm99c.s 			page 9


 314              	.LVL17:
 315              	.L24:
 144:main.c        ****             
 145:main.c        ****             
 146:main.c        ****             
 147:main.c        ****             
 148:main.c        ****         /* handle a write request */
 149:main.c        ****         case CYBLE_EVT_GATTS_WRITE_REQ:
 150:main.c        ****             wrReqParam = (CYBLE_GATTS_WRITE_REQ_PARAM_T *) eventParam;
 151:main.c        **** 			      
 152:main.c        ****             /* request write the LED value */
 153:main.c        ****             if(wrReqParam->handleValPair.attrHandle == CYBLE_LEDCAPSENSE_LED_CHAR_HANDLE)
 316              		.loc 1 153 0
 317 0058 8B89     		ldrh	r3, [r1, #12]
 318 005a 0E2B     		cmp	r3, #14
 319 005c 15D1     		bne	.L26
 154:main.c        ****             {
 155:main.c        ****                 /* only update the value and write the response if the requested write is allowed *
 156:main.c        ****                 if(CYBLE_GATT_ERR_NONE == CyBle_GattsWriteAttributeValue(&wrReqParam->handleValPair
 320              		.loc 1 156 0
 321 005e 081D     		adds	r0, r1, #4
 322              	.LVL18:
 323 0060 3233     		adds	r3, r3, #50
 324 0062 234A     		ldr	r2, .L28+12
 325 0064 0021     		movs	r1, #0
 326              	.LVL19:
 327 0066 FFF7FEFF 		bl	CyBle_GattsWriteAttributeValue
 328              	.LVL20:
 329 006a 0028     		cmp	r0, #0
 330 006c 0DD1     		bne	.L26
 157:main.c        ****                 {
 158:main.c        ****                     red_Write(!wrReqParam->handleValPair.value.val[0]);
 331              		.loc 1 158 0
 332 006e 6368     		ldr	r3, [r4, #4]
 333 0070 1B78     		ldrb	r3, [r3]
 334 0072 5842     		rsbs	r0, r3, #0
 335 0074 5841     		adcs	r0, r0, r3
 336 0076 C0B2     		uxtb	r0, r0
 337 0078 FFF7FEFF 		bl	red_Write
 338              	.LVL21:
 159:main.c        ****                     CyBle_GattsWriteRsp(cyBle_connHandle);
 339              		.loc 1 159 0
 340 007c 1C4A     		ldr	r2, .L28+12
 341 007e 1378     		ldrb	r3, [r2]
 342 0080 5078     		ldrb	r0, [r2, #1]
 343 0082 0002     		lsls	r0, r0, #8
 344 0084 1843     		orrs	r0, r3
 345 0086 FFF7FEFF 		bl	CyBle_GattsWriteRsp
 346              	.LVL22:
 347              	.L26:
 160:main.c        ****                 }
 161:main.c        ****             }
 162:main.c        ****             
 163:main.c        ****             /* request to update the CapSense notification */
 164:main.c        ****             if(wrReqParam->handleValPair.attrHandle == CYBLE_LEDCAPSENSE_CAPSENSE_CAPSENSECCCD_DESC
 348              		.loc 1 164 0
 349 008a A389     		ldrh	r3, [r4, #12]
ARM GAS  C:\Users\JEROME~1.CRO\AppData\Local\Temp\ccuIm99c.s 			page 10


 350 008c 122B     		cmp	r3, #18
 351 008e 12D1     		bne	.L27
 165:main.c        ****             {
 166:main.c        ****                 CyBle_GattsWriteAttributeValue(&wrReqParam->handleValPair, 0, &cyBle_connHandle, CY
 352              		.loc 1 166 0
 353 0090 174D     		ldr	r5, .L28+12
 354 0092 201D     		adds	r0, r4, #4
 355 0094 2E33     		adds	r3, r3, #46
 356 0096 2A00     		movs	r2, r5
 357 0098 0021     		movs	r1, #0
 358 009a FFF7FEFF 		bl	CyBle_GattsWriteAttributeValue
 359              	.LVL23:
 167:main.c        ****                 capsenseNotify = wrReqParam->handleValPair.value.val[0] & 0x01;
 360              		.loc 1 167 0
 361 009e 6368     		ldr	r3, [r4, #4]
 362 00a0 1B78     		ldrb	r3, [r3]
 363 00a2 0122     		movs	r2, #1
 364 00a4 1340     		ands	r3, r2
 365 00a6 0F4A     		ldr	r2, .L28
 366 00a8 1360     		str	r3, [r2]
 168:main.c        ****                 CyBle_GattsWriteRsp(cyBle_connHandle);
 367              		.loc 1 168 0
 368 00aa 2B78     		ldrb	r3, [r5]
 369 00ac 6878     		ldrb	r0, [r5, #1]
 370 00ae 0002     		lsls	r0, r0, #8
 371 00b0 1843     		orrs	r0, r3
 372 00b2 FFF7FEFF 		bl	CyBle_GattsWriteRsp
 373              	.LVL24:
 374              	.L27:
 169:main.c        ****             }		
 170:main.c        ****             
 171:main.c        ****             
 172:main.c        ****             /* request to update the AnalogIn notification */
 173:main.c        ****             if(wrReqParam->handleValPair.attrHandle == CYBLE_LEDCAPSENSE_ANALOGIN_AINCCCD_DESC_HAND
 375              		.loc 1 173 0
 376 00b6 A389     		ldrh	r3, [r4, #12]
 377 00b8 172B     		cmp	r3, #23
 378 00ba 12D1     		bne	.L18
 174:main.c        ****             {
 175:main.c        ****                 CyBle_GattsWriteAttributeValue(&wrReqParam->handleValPair, 0, &cyBle_connHandle, CY
 379              		.loc 1 175 0
 380 00bc 0C4D     		ldr	r5, .L28+12
 381 00be 201D     		adds	r0, r4, #4
 382 00c0 2933     		adds	r3, r3, #41
 383 00c2 2A00     		movs	r2, r5
 384 00c4 0021     		movs	r1, #0
 385 00c6 FFF7FEFF 		bl	CyBle_GattsWriteAttributeValue
 386              	.LVL25:
 176:main.c        ****                 capsenseNotify = wrReqParam->handleValPair.value.val[0] & 0x01;
 387              		.loc 1 176 0
 388 00ca 6368     		ldr	r3, [r4, #4]
 389 00cc 1B78     		ldrb	r3, [r3]
 390 00ce 0122     		movs	r2, #1
 391 00d0 1340     		ands	r3, r2
 392 00d2 044A     		ldr	r2, .L28
 393 00d4 1360     		str	r3, [r2]
 177:main.c        ****                 CyBle_GattsWriteRsp(cyBle_connHandle);
ARM GAS  C:\Users\JEROME~1.CRO\AppData\Local\Temp\ccuIm99c.s 			page 11


 394              		.loc 1 177 0
 395 00d6 2B78     		ldrb	r3, [r5]
 396 00d8 6878     		ldrb	r0, [r5, #1]
 397 00da 0002     		lsls	r0, r0, #8
 398 00dc 1843     		orrs	r0, r3
 399 00de FFF7FEFF 		bl	CyBle_GattsWriteRsp
 400              	.LVL26:
 401              	.L18:
 178:main.c        ****             }		
 179:main.c        ****             
 180:main.c        **** 			break;  
 181:main.c        ****         
 182:main.c        ****         default:
 183:main.c        ****             break;
 184:main.c        ****     }
 185:main.c        **** } 
 402              		.loc 1 185 0
 403              		@ sp needed
 404              	.LVL27:
 405 00e2 70BD     		pop	{r4, r5, r6, pc}
 406              	.L29:
 407              		.align	2
 408              	.L28:
 409 00e4 00000000 		.word	capsenseNotify
 410 00e8 00000000 		.word	.LC15
 411 00ec 00000000 		.word	.LANCHOR1
 412 00f0 00000000 		.word	cyBle_connHandle
 413              		.cfi_endproc
 414              	.LFE38:
 415              		.size	BleCallBack, .-BleCallBack
 416              		.section	.text.main,"ax",%progbits
 417              		.align	2
 418              		.global	main
 419              		.code	16
 420              		.thumb_func
 421              		.type	main, %function
 422              	main:
 423              	.LFB39:
 186:main.c        **** 
 187:main.c        **** /***************************************************************
 188:main.c        ****  * Main
 189:main.c        ****  **************************************************************/
 190:main.c        **** int main()
 191:main.c        **** {
 424              		.loc 1 191 0
 425              		.cfi_startproc
 426              		@ Volatile: function does not return.
 427              		@ args = 0, pretend = 0, frame = 0
 428              		@ frame_needed = 0, uses_anonymous_args = 0
 429 0000 10B5     		push	{r4, lr}
 430              		.cfi_def_cfa_offset 8
 431              		.cfi_offset 4, -8
 432              		.cfi_offset 14, -4
 192:main.c        ****     CyGlobalIntEnable; 
 433              		.loc 1 192 0
 434              		.syntax divided
 435              	@ 192 "main.c" 1
ARM GAS  C:\Users\JEROME~1.CRO\AppData\Local\Temp\ccuIm99c.s 			page 12


 436 0002 62B6     		CPSIE   i
 437              	@ 0 "" 2
 193:main.c        ****     
 194:main.c        ****     capsense_Start();
 438              		.loc 1 194 0
 439              		.thumb
 440              		.syntax unified
 441 0004 FFF7FEFF 		bl	capsense_Start
 442              	.LVL28:
 195:main.c        ****     capsense_InitializeEnabledBaselines();
 443              		.loc 1 195 0
 444 0008 FFF7FEFF 		bl	capsense_InitializeEnabledBaselines
 445              	.LVL29:
 196:main.c        ****     
 197:main.c        ****     /* Start BLE stack and register the callback function */
 198:main.c        ****     CyBle_Start(BleCallBack);
 446              		.loc 1 198 0
 447 000c 1748     		ldr	r0, .L35
 448 000e FFF7FEFF 		bl	CyBle_Start
 449              	.LVL30:
 199:main.c        ****     
 200:main.c        ****     
 201:main.c        ****     /* StartConvert() must be called to initiate 
 202:main.c        ****        conversion in Free Running Mode */
 203:main.c        ****     ADC_Start();
 450              		.loc 1 203 0
 451 0012 FFF7FEFF 		bl	ADC_Start
 452              	.LVL31:
 204:main.c        ****     ADC_StartConvert();
 453              		.loc 1 204 0
 454 0016 FFF7FEFF 		bl	ADC_StartConvert
 455              	.LVL32:
 456              	.L34:
 205:main.c        **** 
 206:main.c        ****     for(;;)
 207:main.c        ****     {        
 208:main.c        ****         /* if Capsense scan is done, read the value and start another scan */
 209:main.c        **** //        if(!capsense_IsBusy())
 210:main.c        **** //        {
 211:main.c        **** //            fingerPos=capsense_GetCentroidPos(capsense_LINEARSLIDER0__LS);
 212:main.c        **** //            analogIn = ADC_GetResult16(0u);
 213:main.c        **** //            
 214:main.c        **** //            capsense_UpdateEnabledBaselines();
 215:main.c        **** //            capsense_ScanEnabledWidgets();
 216:main.c        **** //            updateCapsense();
 217:main.c        **** //            updateAnalogIn();
 218:main.c        **** //
 219:main.c        **** //        }
 220:main.c        ****         if(!capsense_IsBusy())
 457              		.loc 1 220 0
 458 001a FFF7FEFF 		bl	capsense_IsBusy
 459              	.LVL33:
 460 001e 0028     		cmp	r0, #0
 461 0020 1ED1     		bne	.L31
 221:main.c        ****         {
 222:main.c        ****             fingerPos=capsense_GetCentroidPos(capsense_LINEARSLIDER0__LS);
 462              		.loc 1 222 0
ARM GAS  C:\Users\JEROME~1.CRO\AppData\Local\Temp\ccuIm99c.s 			page 13


 463 0022 FFF7FEFF 		bl	capsense_GetCentroidPos
 464              	.LVL34:
 465 0026 124B     		ldr	r3, .L35+4
 466 0028 5880     		strh	r0, [r3, #2]
 223:main.c        ****             
 224:main.c        ****             for ( a = 0 ; a <nSamples; a=a+1)
 467              		.loc 1 224 0
 468 002a 0022     		movs	r2, #0
 469 002c 114B     		ldr	r3, .L35+8
 470 002e 1A80     		strh	r2, [r3]
 471 0030 08E0     		b	.L32
 472              	.L33:
 225:main.c        ****                 analogIn[a] = ADC_GetResult16(0u);
 473              		.loc 1 225 0 discriminator 3
 474 0032 0020     		movs	r0, #0
 475 0034 FFF7FEFF 		bl	ADC_GetResult16
 476              	.LVL35:
 477 0038 0F4B     		ldr	r3, .L35+12
 478 003a 1855     		strb	r0, [r3, r4]
 224:main.c        ****                 analogIn[a] = ADC_GetResult16(0u);
 479              		.loc 1 224 0 discriminator 3
 480 003c 0D4A     		ldr	r2, .L35+8
 481 003e 1388     		ldrh	r3, [r2]
 482 0040 0133     		adds	r3, r3, #1
 483 0042 1380     		strh	r3, [r2]
 484              	.L32:
 224:main.c        ****                 analogIn[a] = ADC_GetResult16(0u);
 485              		.loc 1 224 0 is_stmt 0 discriminator 1
 486 0044 0B4B     		ldr	r3, .L35+8
 487 0046 1C88     		ldrh	r4, [r3]
 488 0048 094B     		ldr	r3, .L35+4
 489 004a DB88     		ldrh	r3, [r3, #6]
 490 004c 9C42     		cmp	r4, r3
 491 004e F0D3     		bcc	.L33
 226:main.c        ****                 
 227:main.c        ****             capsense_UpdateEnabledBaselines();
 492              		.loc 1 227 0 is_stmt 1
 493 0050 FFF7FEFF 		bl	capsense_UpdateEnabledBaselines
 494              	.LVL36:
 228:main.c        ****             capsense_ScanEnabledWidgets();
 495              		.loc 1 228 0
 496 0054 FFF7FEFF 		bl	capsense_ScanEnabledWidgets
 497              	.LVL37:
 229:main.c        ****             updateCapsense();
 498              		.loc 1 229 0
 499 0058 FFF7FEFF 		bl	updateCapsense
 500              	.LVL38:
 230:main.c        ****             updateAnalogIn();
 501              		.loc 1 230 0
 502 005c FFF7FEFF 		bl	updateAnalogIn
 503              	.LVL39:
 504              	.L31:
 231:main.c        **** 
 232:main.c        ****         }
 233:main.c        ****         
 234:main.c        ****         
 235:main.c        ****         CyBle_ProcessEvents();
ARM GAS  C:\Users\JEROME~1.CRO\AppData\Local\Temp\ccuIm99c.s 			page 14


 505              		.loc 1 235 0
 506 0060 FFF7FEFF 		bl	CyBle_ProcessEvents
 507              	.LVL40:
 236:main.c        ****         CyBle_EnterLPM(CYBLE_BLESS_DEEPSLEEP);    
 508              		.loc 1 236 0
 509 0064 0320     		movs	r0, #3
 510 0066 FFF7FEFF 		bl	CyBle_EnterLPM
 511              	.LVL41:
 237:main.c        ****     }
 512              		.loc 1 237 0
 513 006a D6E7     		b	.L34
 514              	.L36:
 515              		.align	2
 516              	.L35:
 517 006c 00000000 		.word	BleCallBack
 518 0070 00000000 		.word	.LANCHOR1
 519 0074 00000000 		.word	a
 520 0078 00000000 		.word	.LANCHOR0
 521              		.cfi_endproc
 522              	.LFE39:
 523              		.size	main, .-main
 524              		.comm	capsenseNotify,4,4
 525              		.comm	a,2,2
 526              		.global	analogInOld
 527              		.global	analogIn
 528              		.global	nSamples
 529              		.global	fingerPosOld
 530              		.global	fingerPos
 531              		.global	negotiatedMtu
 532              		.data
 533              		.align	1
 534              		.set	.LANCHOR1,. + 0
 535              		.type	negotiatedMtu, %object
 536              		.size	negotiatedMtu, 2
 537              	negotiatedMtu:
 538 0000 1700     		.short	23
 539              		.type	fingerPos, %object
 540              		.size	fingerPos, 2
 541              	fingerPos:
 542 0002 FFFF     		.short	-1
 543              		.type	fingerPosOld, %object
 544              		.size	fingerPosOld, 2
 545              	fingerPosOld:
 546 0004 FFFF     		.short	-1
 547              		.type	nSamples, %object
 548              		.size	nSamples, 2
 549              	nSamples:
 550 0006 0002     		.short	512
 551              		.bss
 552              		.align	2
 553              		.set	.LANCHOR0,. + 0
 554              		.type	analogIn, %object
 555              		.size	analogIn, 512
 556              	analogIn:
 557 0000 00000000 		.space	512
 557      00000000 
 557      00000000 
ARM GAS  C:\Users\JEROME~1.CRO\AppData\Local\Temp\ccuIm99c.s 			page 15


 557      00000000 
 557      00000000 
 558              		.type	analogInOld, %object
 559              		.size	analogInOld, 512
 560              	analogInOld:
 561 0200 00000000 		.space	512
 561      00000000 
 561      00000000 
 561      00000000 
 561      00000000 
 562              		.text
 563              	.Letext0:
 564              		.file 2 "Generated_Source\\PSoC4/cytypes.h"
 565              		.file 3 "Generated_Source\\PSoC4/ble_Stack.h"
 566              		.file 4 "Generated_Source\\PSoC4/ble_StackGatt.h"
 567              		.file 5 "Generated_Source\\PSoC4/ble_StackGattServer.h"
 568              		.file 6 "Generated_Source\\PSoC4/ble_eventHandler.h"
 569              		.file 7 "Generated_Source\\PSoC4/ble_StackGattDb.h"
 570              		.file 8 "Generated_Source\\PSoC4/red.h"
 571              		.file 9 "Generated_Source\\PSoC4/ble.h"
 572              		.file 10 "Generated_Source\\PSoC4/pwm.h"
 573              		.file 11 "Generated_Source\\PSoC4/capsense.h"
 574              		.file 12 "Generated_Source\\PSoC4/capsense_CSHL.h"
 575              		.file 13 "Generated_Source\\PSoC4/ADC.h"